target datalayout = "e-m:e-p270:32:32-p271:32:32-p272:64:64-i64:64-i128:128-f80:128-n8:16:32:64-S128"
target triple = "x86_64-pc-linux-gnu"

%"class.duckdb_re2::Regexp::ParseState" = type { i32, %"class.duckdb_re2::StringPiece", ptr, ptr, i32, i32 }
%"class.duckdb_re2::StringPiece" = type { ptr, i64 }
%"class.duckdb_re2::Regexp" = type { i8, i8, i16, i16, i16, %union.anon, ptr, %union.anon.0 }
%union.anon = type { ptr }
%union.anon.0 = type { %struct.anon.1 }
%struct.anon.1 = type { i32, ptr }

; Function Attrs: mustprogress nounwind uwtable
define hidden noundef zeroext i1 @_ZN10duckdb_re26Regexp10ParseState8IsMarkerENS_8RegexpOpE(ptr noundef nonnull align 8 dereferenceable(48) %0, i32 noundef %1) #0 align 2 {
  %3 = alloca ptr, align 8
  %4 = alloca i32, align 4
  store ptr %0, ptr %3, align 8, !tbaa !7
  store i32 %1, ptr %4, align 4, !tbaa !61
  %5 = load i32, ptr %4, align 4, !tbaa !61
  %6 = icmp sge i32 %5, 22
  ret i1 %6
}

; Function Attrs: mustprogress nounwind uwtable
define linkonce_odr hidden noundef i32 @_ZN10duckdb_re26Regexp2opEv(ptr noundef nonnull align 8 dereferenceable(40) %0) #0 comdat align 2 {
  %2 = alloca ptr, align 8
  store ptr %0, ptr %2, align 8, !tbaa !29
  %3 = load ptr, ptr %2, align 8
  %4 = getelementptr inbounds nuw %"class.duckdb_re2::Regexp", ptr %3, i32 0, i32 0
  %5 = load i8, ptr %4, align 8, !tbaa !36
  %6 = zext i8 %5 to i32
  ret i32 %6
}

; Function Attrs: mustprogress uwtable
define hidden void @_ZN10duckdb_re26Regexp10ParseState15DoConcatenationEv(ptr noundef nonnull align 8 dereferenceable(48) %0) #1 align 2 personality ptr @__gxx_personality_v0 {
  %2 = alloca ptr, align 8
  %3 = alloca ptr, align 8
  %4 = alloca ptr, align 8
  %5 = alloca ptr, align 8
  %6 = alloca i32, align 4
  store ptr %0, ptr %2, align 8, !tbaa !7
  %7 = load ptr, ptr %2, align 8
  call void @llvm.lifetime.start.p0(i64 8, ptr %3) #19
  %8 = getelementptr inbounds nuw %"class.duckdb_re2::Regexp::ParseState", ptr %7, i32 0, i32 3
  %9 = load ptr, ptr %8, align 8, !tbaa !26
  store ptr %9, ptr %3, align 8, !tbaa !29
  %10 = load ptr, ptr %3, align 8, !tbaa !29
  %11 = icmp eq ptr %10, null
  br i1 %11, label %16, label %12

12:                                               ; preds = %1
  %13 = load ptr, ptr %3, align 8, !tbaa !29
  %14 = call noundef i32 @_ZN10duckdb_re26Regexp2opEv(ptr noundef nonnull align 8 dereferenceable(40) %13)
  %15 = call noundef zeroext i1 @_ZN10duckdb_re26Regexp10ParseState8IsMarkerENS_8RegexpOpE(ptr noundef nonnull align 8 dereferenceable(48) %7, i32 noundef %14)
  br i1 %15, label %16, label %27

16:                                               ; preds = %12, %1
  call void @llvm.lifetime.start.p0(i64 8, ptr %4) #19
  %17 = call noalias noundef nonnull ptr @_Znwm(i64 noundef 40) #23
  %18 = getelementptr inbounds nuw %"class.duckdb_re2::Regexp::ParseState", ptr %7, i32 0, i32 0
  %19 = load i32, ptr %18, align 8, !tbaa !16
  invoke void @_ZN10duckdb_re26RegexpC1ENS_8RegexpOpENS0_10ParseFlagsE(ptr noundef nonnull align 8 dereferenceable(40) %17, i32 noundef 2, i32 noundef %19)
          to label %20 unwind label %23

20:                                               ; preds = %16
  store ptr %17, ptr %4, align 8, !tbaa !29
  %21 = load ptr, ptr %4, align 8, !tbaa !29
  %22 = call noundef zeroext i1 @_ZN10duckdb_re26Regexp10ParseState10PushRegexpEPS0_(ptr noundef nonnull align 8 dereferenceable(48) %7, ptr noundef %21)
  call void @llvm.lifetime.end.p0(i64 8, ptr %4) #19
  br label %27

23:                                               ; preds = %16
  %24 = landingpad { ptr, i32 }
          cleanup
  %25 = extractvalue { ptr, i32 } %24, 0
  store ptr %25, ptr %5, align 8
  %26 = extractvalue { ptr, i32 } %24, 1
  store i32 %26, ptr %6, align 4
  call void @_ZdlPv(ptr noundef %17) #21
  call void @llvm.lifetime.end.p0(i64 8, ptr %4) #19
  call void @llvm.lifetime.end.p0(i64 8, ptr %3) #19
  br label %28

27:                                               ; preds = %20, %12
  call void @_ZN10duckdb_re26Regexp10ParseState10DoCollapseENS_8RegexpOpE(ptr noundef nonnull align 8 dereferenceable(48) %7, i32 noundef 5)
  call void @llvm.lifetime.end.p0(i64 8, ptr %3) #19
  ret void

28:                                               ; preds = %23
  %29 = load ptr, ptr %5, align 8
  %30 = load i32, ptr %6, align 4
  %31 = insertvalue { ptr, i32 } poison, ptr %29, 0
  %32 = insertvalue { ptr, i32 } %31, i32 %30, 1
  resume { ptr, i32 } %32
}