; Function Attrs: mustprogress uwtable
define hidden void @_ZN10duckdb_re26Regexp10ParseState15DoConcatenationEv(ptr noundef nonnull align 8 captures(none) dereferenceable(48) %0) local_unnamed_addr #9 align 2 personality ptr @__gxx_personality_v0 {
  %2 = getelementptr inbounds nuw i8, ptr %0, i64 32
  %3 = load ptr, ptr %2, align 8, !tbaa !20
  %4 = icmp eq ptr %3, null
  br i1 %4, label %8, label %5

5:                                                ; preds = %1
  %6 = load i8, ptr %3, align 8, !tbaa !26
  %7 = icmp ugt i8 %6, 21
  br i1 %7, label %8, label %15

8:                                                ; preds = %5, %1
  %9 = tail call noalias noundef nonnull dereferenceable(40) ptr @_Znwm(i64 noundef 40) #33
  %10 = load i32, ptr %0, align 8, !tbaa !7
  invoke void @_ZN10duckdb_re26RegexpC1ENS_8RegexpOpENS0_10ParseFlagsE(ptr noundef nonnull align 8 dereferenceable(40) %9, i32 noundef 2, i32 noundef %10)
          to label %11 unwind label %13

11:                                               ; preds = %8
  %12 = tail call noundef zeroext i1 @_ZN10duckdb_re26Regexp10ParseState10PushRegexpEPS0_(ptr noundef nonnull align 8 dereferenceable(48) %0, ptr noundef nonnull %9)
  br label %15

13:                                               ; preds = %8
  %14 = landingpad { ptr, i32 }
          cleanup
  tail call void @_ZdlPv(ptr noundef nonnull %9) #30
  resume { ptr, i32 } %14

15:                                               ; preds = %11, %5
  tail call void @_ZN10duckdb_re26Regexp10ParseState10DoCollapseENS_8RegexpOpE(ptr noundef nonnull align 8 dereferenceable(48) %0, i32 noundef 5)
  ret void
}